target datalayout = "e-m:e-p270:32:32-p271:32:32-p272:64:64-i64:64-i128:128-f80:128-n8:16:32:64-S128"
target triple = "x86_64-unknown-linux-gnu"

@.str = private unnamed_addr constant [14 x i8] c"icudt75l-coll\00", align 1
@_ZL8KEYWORDS = internal constant [1 x ptr] [ptr @.str.5], align 8
@_ZL13RESOURCE_NAME = internal constant [11 x i8] c"collations\00", align 1

; Function Attrs: mustprogress nounwind uwtable
define internal noundef signext i8 @_ZL9U_FAILURE10UErrorCode(i32 noundef %code) #0 {
entry:
  %code.addr = alloca i32, align 4
  store i32 %code, ptr %code.addr, align 4
  %0 = load i32, ptr %code.addr, align 4
  %cmp = icmp sgt i32 %0, 0
  %conv = zext i1 %cmp to i8
  ret i8 %conv
}

; Function Attrs: mustprogress uwtable
define ptr @ucol_getKeywordValues_75(ptr noundef %keyword, ptr noundef %status) #1 {
entry:
  %retval = alloca ptr, align 8
  %keyword.addr = alloca ptr, align 8
  %status.addr = alloca ptr, align 8
  store ptr %keyword, ptr %keyword.addr, align 8
  store ptr %status, ptr %status.addr, align 8
  %0 = load ptr, ptr %status.addr, align 8
  %1 = load i32, ptr %0, align 4
  %call = call noundef signext i8 @_ZL9U_FAILURE10UErrorCode(i32 noundef %1)
  %tobool = icmp ne i8 %call, 0
  br i1 %tobool, label %if.then, label %if.end

if.then:                                          ; preds = %entry
  store ptr null, ptr %retval, align 8
  br label %return

if.end:                                           ; preds = %entry
  %2 = load ptr, ptr %keyword.addr, align 8
  %cmp = icmp eq ptr %2, null
  br i1 %cmp, label %if.then3, label %lor.lhs.false

lor.lhs.false:                                    ; preds = %if.end
  %3 = load ptr, ptr %keyword.addr, align 8
  %4 = load ptr, ptr @_ZL8KEYWORDS, align 8
  %call1 = call i32 @strcmp(ptr noundef %3, ptr noundef %4) #12
  %cmp2 = icmp ne i32 %call1, 0
  br i1 %cmp2, label %if.then3, label %if.end4

if.then3:                                         ; preds = %lor.lhs.false, %if.end
  %5 = load ptr, ptr %status.addr, align 8
  store i32 1, ptr %5, align 4
  store ptr null, ptr %retval, align 8
  br label %return

if.end4:                                          ; preds = %lor.lhs.false
  %6 = load ptr, ptr %status.addr, align 8
  %call5 = call ptr @ures_getKeywordValues_75(ptr noundef @.str, ptr noundef @_ZL13RESOURCE_NAME, ptr noundef %6)
  store ptr %call5, ptr %retval, align 8
  br label %return

return:                                           ; preds = %if.end4, %if.then3, %if.then
  %7 = load ptr, ptr %retval, align 8
  ret ptr %7
}