; Function Attrs: mustprogress uwtable
define ptr @ucol_getKeywordValues_75(ptr noundef readonly %keyword, ptr noundef %status) local_unnamed_addr #1 {
entry:
  %0 = load i32, ptr %status, align 4
  %cmp.i = icmp slt i32 %0, 1
  br i1 %cmp.i, label %if.end, label %return

if.end:                                           ; preds = %entry
  %cmp = icmp eq ptr %keyword, null
  br i1 %cmp, label %if.then3, label %lor.lhs.false

lor.lhs.false:                                    ; preds = %if.end
  %call1 = tail call i32 @strcmp(ptr noundef nonnull dereferenceable(1) %keyword, ptr noundef nonnull dereferenceable(10) @.str.5) #16
  %cmp2.not = icmp eq i32 %call1, 0
  br i1 %cmp2.not, label %if.end4, label %if.then3

if.then3:                                         ; preds = %lor.lhs.false, %if.end
  store i32 1, ptr %status, align 4
  br label %return

if.end4:                                          ; preds = %lor.lhs.false
  %call5 = tail call ptr @ures_getKeywordValues_75(ptr noundef nonnull @.str, ptr noundef nonnull @.str.3, ptr noundef nonnull %status)
  br label %return

return:                                           ; preds = %entry, %if.end4, %if.then3
  %retval.0 = phi ptr [ null, %if.then3 ], [ %call5, %if.end4 ], [ null, %entry ]
  ret ptr %retval.0
}